target datalayout = "e-m:e-p270:32:32-p271:32:32-p272:64:64-i64:64-i128:128-f80:128-n8:16:32:64-S128"
target triple = "x86_64-pc-linux-gnu"

; Function Attrs: inlinehint mustprogress nounwind uwtable
define internal noundef ptr @_ZL8lean_boxm(i64 noundef %0) #7 {
  %2 = alloca i64, align 8
  store i64 %0, ptr %2, align 8, !tbaa !30
  %3 = load i64, ptr %2, align 8, !tbaa !30
  %4 = shl i64 %3, 1
  %5 = or i64 %4, 1
  %6 = inttoptr i64 %5 to ptr
  ret ptr %6
}

; Function Attrs: inlinehint mustprogress uwtable
define internal noundef ptr @_ZL16lean_io_mk_worldv() #3 {
  %1 = call noundef ptr @_ZL8lean_boxm(i64 noundef 0)
  ret ptr %1
}

; Function Attrs: inlinehint mustprogress uwtable
define linkonce_odr hidden noundef ptr @_ZN4lean11io_mk_worldEv() #3 comdat {
  %1 = call noundef ptr @_ZL16lean_io_mk_worldv()
  ret ptr %1
}

; Function Attrs: mustprogress uwtable
define void @lean_initialize() #0 {
  %1 = alloca i8, align 1
  call void @_ZN4lean15save_stack_infoEb(i1 noundef zeroext true)
  call void @_ZN4lean22initialize_util_moduleEv()
  call void @llvm.lifetime.start.p0(i64 1, ptr %1) #14
  store i8 1, ptr %1, align 1, !tbaa !3
  %2 = load i8, ptr %1, align 1, !tbaa !3
  %3 = call noundef ptr @_ZN4lean11io_mk_worldEv()
  %4 = call ptr @initialize_Init(i8 noundef zeroext %2, ptr noundef %3)
  call void @_ZN4lean17consume_io_resultEP11lean_object(ptr noundef %4)
  %5 = load i8, ptr %1, align 1, !tbaa !3
  %6 = call noundef ptr @_ZN4lean11io_mk_worldEv()
  %7 = call ptr @initialize_Std(i8 noundef zeroext %5, ptr noundef %6)
  call void @_ZN4lean17consume_io_resultEP11lean_object(ptr noundef %7)
  %8 = load i8, ptr %1, align 1, !tbaa !3
  %9 = call noundef ptr @_ZN4lean11io_mk_worldEv()
  %10 = call ptr @initialize_Lean(i8 noundef zeroext %8, ptr noundef %9)
  call void @_ZN4lean17consume_io_resultEP11lean_object(ptr noundef %10)
  call void @_ZN4lean24initialize_kernel_moduleEv()
  call void @_ZN4lean21init_default_print_fnEv()
  call void @_ZN4lean30initialize_library_core_moduleEv()
  call void @_ZN4lean25initialize_library_moduleEv()
  call void @_ZN4lean26initialize_compiler_moduleEv()
  call void @_ZN4lean31initialize_constructions_moduleEv()
  call void @llvm.lifetime.end.p0(i64 1, ptr %1) #14
  ret void
}