; Function Attrs: mustprogress uwtable
define void @lean_initialize() local_unnamed_addr #0 {
  tail call void @_ZN4lean15save_stack_infoEb(i1 noundef zeroext true)
  tail call void @_ZN4lean22initialize_util_moduleEv()
  %1 = tail call ptr @initialize_Init(i8 noundef zeroext 1, ptr noundef nonnull inttoptr (i64 1 to ptr))
  tail call void @_ZN4lean17consume_io_resultEP11lean_object(ptr noundef %1)
  %2 = tail call ptr @initialize_Std(i8 noundef zeroext 1, ptr noundef nonnull inttoptr (i64 1 to ptr))
  tail call void @_ZN4lean17consume_io_resultEP11lean_object(ptr noundef %2)
  %3 = tail call ptr @initialize_Lean(i8 noundef zeroext 1, ptr noundef nonnull inttoptr (i64 1 to ptr))
  tail call void @_ZN4lean17consume_io_resultEP11lean_object(ptr noundef %3)
  tail call void @_ZN4lean24initialize_kernel_moduleEv()
  tail call void @_ZN4lean21init_default_print_fnEv()
  tail call void @_ZN4lean30initialize_library_core_moduleEv()
  tail call void @_ZN4lean25initialize_library_moduleEv()
  tail call void @_ZN4lean26initialize_compiler_moduleEv()
  tail call void @_ZN4lean31initialize_constructions_moduleEv()
  ret void
}